; Function Attrs: nounwind uwtable
define noalias noundef ptr @Bac_NtkTransformToPtr(ptr noundef readonly captures(none) %0) local_unnamed_addr #0 {
Vec_PtrPush.exit38:
  %1 = tail call noalias dereferenceable_or_null(16) ptr @malloc(i64 noundef 16) #20
  %2 = getelementptr inbounds nuw i8, ptr %1, i64 4
  store i32 5, ptr %1, align 8, !tbaa !36
  %3 = tail call noalias dereferenceable_or_null(40) ptr @malloc(i64 noundef 40) #20
  %4 = getelementptr inbounds nuw i8, ptr %1, i64 8
  store ptr %3, ptr %4, align 8, !tbaa !32
  %.val = load ptr, ptr %0, align 8, !tbaa !64
  %5 = getelementptr i8, ptr %0, i64 8
  %.val10 = load i32, ptr %5, align 8, !tbaa !97
  %6 = getelementptr i8, ptr %.val, i64 16
  %.val.val = load ptr, ptr %6, align 8, !tbaa !76
  %7 = tail call ptr @Abc_NamStr(ptr noundef %.val.val, i32 noundef %.val10) #19
  store ptr %7, ptr %3, align 8, !tbaa !34
  %8 = tail call ptr @Bac_NtkTransformToPtrInputs(ptr noundef nonnull %0)
  %9 = getelementptr inbounds nuw i8, ptr %3, i64 8
  store ptr %8, ptr %9, align 8, !tbaa !34
  %10 = tail call ptr @Bac_NtkTransformToPtrOutputs(ptr noundef nonnull %0)
  %11 = getelementptr inbounds nuw i8, ptr %3, i64 16
  store ptr %10, ptr %11, align 8, !tbaa !34
  %calloc = tail call dereferenceable_or_null(16) ptr @calloc(i64 1, i64 16)
  %12 = getelementptr inbounds nuw i8, ptr %3, i64 24
  store ptr %calloc, ptr %12, align 8, !tbaa !34
  %13 = tail call ptr @Bac_NtkTransformToPtrBoxes(ptr noundef nonnull %0)
  store i32 5, ptr %2, align 4, !tbaa !35
  %14 = getelementptr inbounds nuw i8, ptr %3, i64 32
  store ptr %13, ptr %14, align 8, !tbaa !34
  ret ptr %1
}